# Path: ./mac/Release/part2_unstripped.so
# Arch: x86_64
# Object files:
[  0] linker synthesized
[  1] ./mac/Release/hello_tutorial.o
[  2] /Users/james/Technology/nacl/nacl_sdk/pepper_49/lib/mac_host/Release/libppapi_cpp.a(core.o)
[  3] /Users/james/Technology/nacl/nacl_sdk/pepper_49/lib/mac_host/Release/libppapi_cpp.a(file_ref.o)
[  4] /Users/james/Technology/nacl/nacl_sdk/pepper_49/lib/mac_host/Release/libppapi_cpp.a(input_event.o)
[  5] /Users/james/Technology/nacl/nacl_sdk/pepper_49/lib/mac_host/Release/libppapi_cpp.a(instance.o)
[  6] /Users/james/Technology/nacl/nacl_sdk/pepper_49/lib/mac_host/Release/libppapi_cpp.a(module.o)
[  7] /Users/james/Technology/nacl/nacl_sdk/pepper_49/lib/mac_host/Release/libppapi_cpp.a(ppp_entrypoints.o)
[  8] /Users/james/Technology/nacl/nacl_sdk/pepper_49/lib/mac_host/Release/libppapi_cpp.a(resource.o)
[  9] /Users/james/Technology/nacl/nacl_sdk/pepper_49/lib/mac_host/Release/libppapi_cpp.a(url_loader.o)
[ 10] /Users/james/Technology/nacl/nacl_sdk/pepper_49/lib/mac_host/Release/libppapi_cpp.a(url_response_info.o)
[ 11] /Users/james/Technology/nacl/nacl_sdk/pepper_49/lib/mac_host/Release/libppapi_cpp.a(var.o)
[ 12] /Users/james/Technology/nacl/nacl_sdk/pepper_49/lib/mac_host/Release/libppapi_cpp.a(view.o)
[ 13] /usr/lib/libc++.dylib
[ 14] /usr/lib/libSystem.dylib
# Sections:
# Address	Size    	Segment	Section
0x00001630	0x00009F8E	__TEXT	__text
0x0000B5BE	0x00000078	__TEXT	__stubs
0x0000B638	0x000000C4	__TEXT	__stub_helper
0x0000B6FC	0x00001BAC	__TEXT	__gcc_except_tab
0x0000D2B0	0x0000016F	__TEXT	__const
0x0000D41F	0x0000027D	__TEXT	__cstring
0x0000D69C	0x000006D8	__TEXT	__unwind_info
0x0000DD78	0x00000280	__TEXT	__eh_frame
0x0000E000	0x00000068	__DATA	__got
0x0000E068	0x00000010	__DATA	__nl_symbol_ptr
0x0000E078	0x000000A0	__DATA	__la_symbol_ptr
0x0000E120	0x00000168	__DATA	__const
0x0000E290	0x00000338	__DATA	__data
0x0000E5C8	0x00000180	__DATA	__bss
# Symbols:
# Address	Size    	File  Name
0x00001630	0x00000050	[  1] __ZN2pp12CreateModuleEv
0x00001680	0x00000010	[  1] __ZN19HelloTutorialModuleD1Ev
0x00001690	0x00000030	[  1] __ZN19HelloTutorialModuleD0Ev
0x000016C0	0x00000050	[  1] __ZN19HelloTutorialModule14CreateInstanceEi
0x00001710	0x00000010	[  1] __ZN21HelloTutorialInstanceD1Ev
0x00001720	0x00000030	[  1] __ZN21HelloTutorialInstanceD0Ev
0x00001750	0x000000A0	[  1] __ZN21HelloTutorialInstance13HandleMessageERKN2pp3VarE
0x000017F0	0x0000000B	[  1] ___clang_call_terminate
0x00001800	0x00000040	[  2] __ZN2pp4Core16CallOnMainThreadEiRKNS_18CompletionCallbackEi
0x00001840	0x00000011	[  2] __ZN2pp4Core12IsMainThreadEv
0x00001860	0x00000030	[  3] __ZN2pp7FileRefC1Ei
0x00001890	0x00000030	[  3] __ZN2pp7FileRefC2Ei
0x000018C0	0x00000030	[  3] __ZN2pp7FileRefC1ENS_7PassRefEi
0x000018F0	0x00000030	[  3] __ZN2pp7FileRefC2ENS_7PassRefEi
0x00001920	0x00000010	[  3] __ZN2pp7FileRefC1ERKNS_10FileSystemEPKc
0x00001930	0x00000290	[  3] __ZN2pp7FileRefC2ERKNS_10FileSystemEPKc
0x00001BC0	0x00000030	[  3] __ZN2pp7FileRefC1ERKS0_
0x00001BF0	0x00000030	[  3] __ZN2pp7FileRefC2ERKS0_
0x00001C20	0x00000220	[  3] __ZNK2pp7FileRef17GetFileSystemTypeEv
0x00001E40	0x00000240	[  3] __ZNK2pp7FileRef7GetNameEv
0x00002080	0x00000240	[  3] __ZNK2pp7FileRef7GetPathEv
0x000022C0	0x00000240	[  3] __ZNK2pp7FileRef9GetParentEv
0x00002500	0x000002C0	[  3] __ZN2pp7FileRef13MakeDirectoryEiRKNS_18CompletionCallbackE
0x000027C0	0x00000280	[  3] __ZN2pp7FileRef5TouchEddRKNS_18CompletionCallbackE
0x00002A40	0x00000270	[  3] __ZN2pp7FileRef6DeleteERKNS_18CompletionCallbackE
0x00002CB0	0x00000270	[  3] __ZN2pp7FileRef6RenameERKS0_RKNS_18CompletionCallbackE
0x00002F20	0x000001D0	[  3] __ZN2pp7FileRef5QueryERKNS_28CompletionCallbackWithOutputI11PP_FileInfoEE
0x000030F0	0x000001CB	[  3] __ZN2pp7FileRef20ReadDirectoryEntriesERKNS_28CompletionCallbackWithOutputINSt3__16vectorINS_14DirectoryEntryENS2_9allocatorIS4_EEEEEE
0x000032C0	0x00000020	[  4] __ZN2pp10InputEventC1Ev
0x000032E0	0x00000020	[  4] __ZN2pp10InputEventC2Ev
0x00003300	0x00000010	[  4] __ZN2pp10InputEventC1Ei
0x00003310	0x00000120	[  4] __ZN2pp10InputEventC2Ei
0x00003430	0x00000030	[  4] __ZN2pp10InputEventD0Ev
0x00003460	0x00000010	[  4] __ZN2pp10InputEventD1Ev
0x00003470	0x00000010	[  4] __ZN2pp10InputEventD2Ev
0x00003480	0x000000D0	[  4] __ZNK2pp10InputEvent7GetTypeEv
0x00003550	0x000000D0	[  4] __ZNK2pp10InputEvent12GetTimeStampEv
0x00003620	0x000000D0	[  4] __ZNK2pp10InputEvent12GetModifiersEv
0x000036F0	0x00000030	[  4] __ZN2pp15MouseInputEventC1Ev
0x00003720	0x00000030	[  4] __ZN2pp15MouseInputEventC2Ev
0x00003750	0x00000010	[  4] __ZN2pp15MouseInputEventC1ERKNS_10InputEventE
0x00003760	0x00000120	[  4] __ZN2pp15MouseInputEventC2ERKNS_10InputEventE
0x00003880	0x00000010	[  4] __ZN2pp15MouseInputEventC1ERKNS_14InstanceHandleE18PP_InputEvent_Typedj25PP_InputEvent_MouseButtonRKNS_5PointEiS8_
0x00003890	0x00000140	[  4] __ZN2pp15MouseInputEventC2ERKNS_14InstanceHandleE18PP_InputEvent_Typedj25PP_InputEvent_MouseButtonRKNS_5PointEiS8_
0x000039D0	0x000000D0	[  4] __ZNK2pp15MouseInputEvent9GetButtonEv
0x00003AA0	0x000000E0	[  4] __ZNK2pp15MouseInputEvent11GetPositionEv
0x00003B80	0x000000D0	[  4] __ZNK2pp15MouseInputEvent13GetClickCountEv
0x00003C50	0x000000E0	[  4] __ZNK2pp15MouseInputEvent11GetMovementEv
0x00003D30	0x00000030	[  4] __ZN2pp15WheelInputEventC1Ev
0x00003D60	0x00000030	[  4] __ZN2pp15WheelInputEventC2Ev
0x00003D90	0x00000010	[  4] __ZN2pp15WheelInputEventC1ERKNS_10InputEventE
0x00003DA0	0x00000120	[  4] __ZN2pp15WheelInputEventC2ERKNS_10InputEventE
0x00003EC0	0x00000010	[  4] __ZN2pp15WheelInputEventC1ERKNS_14InstanceHandleEdjRKNS_10FloatPointES6_b
0x00003ED0	0x00000140	[  4] __ZN2pp15WheelInputEventC2ERKNS_14InstanceHandleEdjRKNS_10FloatPointES6_b
0x00004010	0x000000F0	[  4] __ZNK2pp15WheelInputEvent8GetDeltaEv
0x00004100	0x000000F0	[  4] __ZNK2pp15WheelInputEvent8GetTicksEv
0x000041F0	0x000000D0	[  4] __ZNK2pp15WheelInputEvent15GetScrollByPageEv
0x000042C0	0x00000030	[  4] __ZN2pp18KeyboardInputEventC1Ev
0x000042F0	0x00000030	[  4] __ZN2pp18KeyboardInputEventC2Ev
0x00004320	0x00000010	[  4] __ZN2pp18KeyboardInputEventC1ERKNS_10InputEventE
0x00004330	0x000001D0	[  4] __ZN2pp18KeyboardInputEventC2ERKNS_10InputEventE
0x00004500	0x00000010	[  4] __ZN2pp18KeyboardInputEventC1ERKNS_14InstanceHandleE18PP_InputEvent_TypedjjRKNS_3VarE
0x00004510	0x00000250	[  4] __ZN2pp18KeyboardInputEventC2ERKNS_14InstanceHandleE18PP_InputEvent_TypedjjRKNS_3VarE
0x00004760	0x00000010	[  4] __ZN2pp18KeyboardInputEventC1ERKNS_14InstanceHandleE18PP_InputEvent_TypedjjRKNS_3VarES7_
0x00004770	0x00000220	[  4] __ZN2pp18KeyboardInputEventC2ERKNS_14InstanceHandleE18PP_InputEvent_TypedjjRKNS_3VarES7_
0x00004990	0x00000180	[  4] __ZNK2pp18KeyboardInputEvent10GetKeyCodeEv
0x00004B10	0x000001A0	[  4] __ZNK2pp18KeyboardInputEvent16GetCharacterTextEv
0x00004CB0	0x000000F0	[  4] __ZNK2pp18KeyboardInputEvent7GetCodeEv
0x00004DA0	0x00000030	[  4] __ZN2pp15TouchInputEventC1Ev
0x00004DD0	0x00000030	[  4] __ZN2pp15TouchInputEventC2Ev
0x00004E00	0x00000010	[  4] __ZN2pp15TouchInputEventC1ERKNS_10InputEventE
0x00004E10	0x00000120	[  4] __ZN2pp15TouchInputEventC2ERKNS_10InputEventE
0x00004F30	0x00000010	[  4] __ZN2pp15TouchInputEventC1ERKNS_14InstanceHandleE18PP_InputEvent_Typedj
0x00004F40	0x00000130	[  4] __ZN2pp15TouchInputEventC2ERKNS_14InstanceHandleE18PP_InputEvent_Typedj
0x00005070	0x000000E0	[  4] __ZN2pp15TouchInputEvent13AddTouchPointE16PP_TouchListType13PP_TouchPoint
0x00005150	0x000000E0	[  4] __ZNK2pp15TouchInputEvent13GetTouchCountE16PP_TouchListType
0x00005230	0x00000110	[  4] __ZNK2pp15TouchInputEvent12GetTouchByIdE16PP_TouchListTypej
0x00005340	0x00000110	[  4] __ZNK2pp15TouchInputEvent15GetTouchByIndexE16PP_TouchListTypej
0x00005450	0x00000030	[  4] __ZN2pp13IMEInputEventC1Ev
0x00005480	0x00000030	[  4] __ZN2pp13IMEInputEventC2Ev
0x000054B0	0x00000010	[  4] __ZN2pp13IMEInputEventC1ERKNS_10InputEventE
0x000054C0	0x00000120	[  4] __ZN2pp13IMEInputEventC2ERKNS_10InputEventE
0x000055E0	0x00000010	[  4] __ZN2pp13IMEInputEventC1ERKNS_14InstanceHandleE18PP_InputEvent_TypedRKNS_3VarERKNSt3__16vectorIjNS8_9allocatorIjEEEEiRKNS8_4pairIjjEE
0x000055F0	0x00000190	[  4] __ZN2pp13IMEInputEventC2ERKNS_14InstanceHandleE18PP_InputEvent_TypedRKNS_3VarERKNSt3__16vectorIjNS8_9allocatorIjEEEEiRKNS8_4pairIjjEE
0x00005780	0x000000F0	[  4] __ZNK2pp13IMEInputEvent7GetTextEv
0x00005870	0x000000D0	[  4] __ZNK2pp13IMEInputEvent16GetSegmentNumberEv
0x00005940	0x000000E0	[  4] __ZNK2pp13IMEInputEvent16GetSegmentOffsetEj
0x00005A20	0x000000D0	[  4] __ZNK2pp13IMEInputEvent16GetTargetSegmentEv
0x00005AF0	0x000000E6	[  4] __ZNK2pp13IMEInputEvent12GetSelectionEPjS1_
0x00005BE0	0x00000000	[  4] __ZN2pp15WheelInputEventD1Ev
0x00005BE0	0x00000000	[  4] __ZN2pp18KeyboardInputEventD1Ev
0x00005BE0	0x00000000	[  4] __ZN2pp15TouchInputEventD1Ev
0x00005BE0	0x00000000	[  4] __ZN2pp13IMEInputEventD1Ev
0x00005BE0	0x00000000	[  9] __ZN2pp9URLLoaderD1Ev
0x00005BE0	0x00000000	[  9] __ZN2pp15URLResponseInfoD1Ev
0x00005BE0	0x00000000	[ 10] __ZN2pp7FileRefD1Ev
0x00005BE0	0x00000000	[ 12] __ZN2pp4ViewD1Ev
0x00005BE0	0x00000010	[  4] __ZN2pp15MouseInputEventD1Ev
0x00005BF0	0x00000030	[  4] __ZN2pp15MouseInputEventD0Ev
0x00005C20	0x00000030	[  4] __ZN2pp15WheelInputEventD0Ev
0x00005C50	0x00000030	[  4] __ZN2pp18KeyboardInputEventD0Ev
0x00005C80	0x00000030	[  4] __ZN2pp15TouchInputEventD0Ev
0x00005CB0	0x0000002E	[  4] __ZN2pp13IMEInputEventD0Ev
0x00005CE0	0x00000030	[  5] __ZN2pp8InstanceC1Ei
0x00005D10	0x00000030	[  5] __ZN2pp8InstanceC2Ei
0x00005D40	0x00000030	[  5] __ZN2pp8InstanceD0Ev
0x00005D70	0x00000020	[  5] __ZN2pp8InstanceD1Ev
0x00005D90	0x00000020	[  5] __ZN2pp8InstanceD2Ev
0x00005DB0	0x00000010	[  5] __ZN2pp8Instance4InitEjPPKcS3_
0x00005DC0	0x00000060	[  5] __ZN2pp8Instance13DidChangeViewERKNS_4ViewE
0x00005E20	0x00000010	[  5] __ZN2pp8Instance13DidChangeViewERKNS_4RectES3_
0x00005E30	0x00000010	[  5] __ZN2pp8Instance14DidChangeFocusEb
0x00005E40	0x00000010	[  5] __ZN2pp8Instance18HandleDocumentLoadERKNS_9URLLoaderE
0x00005E50	0x00000010	[  5] __ZN2pp8Instance16HandleInputEventERKNS_10InputEventE
0x00005E60	0x00000010	[  5] __ZN2pp8Instance13HandleMessageERKNS_3VarE
0x00005E70	0x000000E0	[  5] __ZN2pp8Instance12BindGraphicsERKNS_10Graphics2DE
0x00005F50	0x000000E0	[  5] __ZN2pp8Instance12BindGraphicsERKNS_10Graphics3DE
0x00006030	0x000000E0	[  5] __ZN2pp8Instance12BindGraphicsERKNS_10CompositorE
0x00006110	0x000000D0	[  5] __ZN2pp8Instance11IsFullFrameEv
0x000061E0	0x000000E0	[  5] __ZN2pp8Instance18RequestInputEventsEj
0x000062C0	0x000000E0	[  5] __ZN2pp8Instance27RequestFilteringInputEventsEj
0x000063A0	0x000000E0	[  5] __ZN2pp8Instance22ClearInputEventRequestEj
0x00006480	0x00000180	[  5] __ZN2pp8Instance11PostMessageERKNS_3VarE
0x00006600	0x00000100	[  5] __ZN2pp8Instance22RegisterMessageHandlerEPNS_14MessageHandlerERKNS_11MessageLoopE
0x00006700	0x000000D0	[  5] __ZN2pp8Instance24UnregisterMessageHandlerEv
0x000067D0	0x000000F0	[  5] __ZN2pp8Instance12LogToConsoleE11PP_LogLevelRKNS_3VarE
0x000068C0	0x00000100	[  5] __ZN2pp8Instance22LogToConsoleWithSourceE11PP_LogLevelRKNS_3VarES4_
0x000069C0	0x00000020	[  5] __ZN2pp8Instance20AddPerInstanceObjectERKNSt3__112basic_stringIcNS1_11char_traitsIcEENS1_9allocatorIcEEEEPv
0x000069E0	0x00000090	[  5] __ZN2pp8Instance23RemovePerInstanceObjectERKNSt3__112basic_stringIcNS1_11char_traitsIcEENS1_9allocatorIcEEEEPv
0x00006A70	0x00000040	[  5] __ZN2pp8Instance23RemovePerInstanceObjectERKNS_14InstanceHandleERKNSt3__112basic_stringIcNS4_11char_traitsIcEENS4_9allocatorIcEEEEPv
0x00006AB0	0x00000050	[  5] __ZN2pp8Instance20GetPerInstanceObjectEiRKNSt3__112basic_stringIcNS1_11char_traitsIcEENS1_9allocatorIcEEEE
0x00006B00	0x00000070	[  5] __ZN2pp12_GLOBAL__N_113HandleMessageEiPvPK6PP_Var
0x00006B70	0x000000A0	[  5] __ZN2pp12_GLOBAL__N_121HandleBlockingMessageEiPvPK6PP_VarPS2_
0x00006C10	0x00000015	[  5] __ZN2pp12_GLOBAL__N_17DestroyEiPv
0x00006C30	0x000000C0	[  5] __ZNSt3__13mapINS_12basic_stringIcNS_11char_traitsIcEENS_9allocatorIcEEEEPvNS_4lessIS6_EENS4_INS_4pairIKS6_S7_EEEEEixERSB_
0x00006CF0	0x00000000	[  6] __ZNSt3__16__treeINS_12__value_typeINS_12basic_stringIcNS_11char_traitsIcEENS_9allocatorIcEEEEPKvEENS_19__map_value_compareIS7_SA_NS_4lessIS7_EELb1EEENS5_ISA_EEE4findIS7_EENS_15__tree_iteratorISA_PNS_11__tree_nodeISA_PvEElEERKT_
0x00006CF0	0x000001A0	[  5] __ZNSt3__16__treeINS_12__value_typeINS_12basic_stringIcNS_11char_traitsIcEENS_9allocatorIcEEEEPvEENS_19__map_value_compareIS7_S9_NS_4lessIS7_EELb1EEENS5_IS9_EEE4findIS7_EENS_15__tree_iteratorIS9_PNS_11__tree_nodeIS9_S8_EElEERKT_
0x00006E90	0x00000000	[  6] __ZNSt3__13mapINS_12basic_stringIcNS_11char_traitsIcEENS_9allocatorIcEEEEPKvNS_4lessIS6_EENS4_INS_4pairIKS6_S8_EEEEE16__find_equal_keyERPNS_16__tree_node_baseIPvEERSC_
0x00006E90	0x000001E0	[  5] __ZNSt3__13mapINS_12basic_stringIcNS_11char_traitsIcEENS_9allocatorIcEEEEPvNS_4lessIS6_EENS4_INS_4pairIKS6_S7_EEEEE16__find_equal_keyERPNS_16__tree_node_baseIS7_EERSB_
0x00007070	0x0000004B	[  5] __ZNSt3__16__treeINS_12__value_typeINS_12basic_stringIcNS_11char_traitsIcEENS_9allocatorIcEEEEPvEENS_19__map_value_compareIS7_S9_NS_4lessIS7_EELb1EEENS5_IS9_EEE7destroyEPNS_11__tree_nodeIS9_S8_EE
0x000070C0	0x000000C0	[  6] __ZN2pp22InputEvent_HandleEventEii
0x00007180	0x00000050	[  6] __ZN2pp6Module21InstanceForPPInstanceEi
0x000071D0	0x00000090	[  6] __ZN2pp18Instance_DidCreateEijPPKcS2_
0x00007260	0x000000D0	[  6] __ZN2pp19Instance_DidDestroyEi
0x00007330	0x000000C0	[  6] __ZN2pp22Instance_DidChangeViewEii
0x000073F0	0x00000070	[  6] __ZN2pp23Instance_DidChangeFocusEi7PP_Bool
0x00007460	0x000000C0	[  6] __ZN2pp27Instance_HandleDocumentLoadEii
0x00007520	0x000000C0	[  6] __ZN2pp23Messaging_HandleMessageEi6PP_Var
0x000075E0	0x00000060	[  6] __ZN2pp6ModuleC2Ev
0x00007640	0x00000060	[  6] __ZN2pp6ModuleD0Ev
0x000076A0	0x00000050	[  6] __ZN2pp6ModuleD1Ev
0x000076F0	0x00000050	[  6] __ZN2pp6ModuleD2Ev
0x00007740	0x00000010	[  6] __ZN2pp6Module4InitEv
0x00007750	0x000000C0	[  6] __ZN2pp6Module18GetPluginInterfaceEPKc
0x00007810	0x00000010	[  6] __ZN2pp6Module19GetBrowserInterfaceEPKc
0x00007820	0x00000050	[  6] __ZN2pp6Module18AddPluginInterfaceERKNSt3__112basic_stringIcNS1_11char_traitsIcEENS1_9allocatorIcEEEEPKv
0x00007870	0x00000045	[  6] __ZN2pp6Module12InternalInitEiPFPKvPKcE
0x000078C0	0x000000F0	[  6] __ZNSt3__13mapIiPN2pp8InstanceENS_4lessIiEENS_9allocatorINS_4pairIKiS3_EEEEEixERS8_
0x000079B0	0x000000C0	[  6] __ZNSt3__13mapINS_12basic_stringIcNS_11char_traitsIcEENS_9allocatorIcEEEEPKvNS_4lessIS6_EENS4_INS_4pairIKS6_S8_EEEEEixERSC_
0x00007A70	0x00000180	[  6] __ZNSt3__127__tree_balance_after_insertIPNS_16__tree_node_baseIPvEEEEvT_S5_
0x00007BF0	0x00000390	[  6] __ZNSt3__113__tree_removeIPNS_16__tree_node_baseIPvEEEEvT_S5_
0x00007F80	0x00000050	[  6] __ZNSt3__16__treeINS_12__value_typeINS_12basic_stringIcNS_11char_traitsIcEENS_9allocatorIcEEEEPKvEENS_19__map_value_compareIS7_SA_NS_4lessIS7_EELb1EEENS5_ISA_EEE7destroyEPNS_11__tree_nodeISA_PvEE
0x00007FD0	0x0000003A	[  6] __ZNSt3__16__treeINS_12__value_typeIiPN2pp8InstanceEEENS_19__map_value_compareIiS5_NS_4lessIiEELb1EEENS_9allocatorIS5_EEE7destroyEPNS_11__tree_nodeIS5_PvEE
0x00008010	0x00000010	[  7] __ZN2pp6Module3GetEv
0x00008020	0x00000010	[  7] __ZN2pp25SetBrokerGetInterfaceFuncEPFPKvPKcE
0x00008030	0x00000060	[  7] _PPP_InitializeModule
0x00008090	0x00000030	[  7] _PPP_ShutdownModule
0x000080C0	0x00000032	[  7] _PPP_GetInterface
0x00008100	0x00000020	[  8] __ZN2pp8ResourceC1Ev
0x00008120	0x00000020	[  8] __ZN2pp8ResourceC2Ev
0x00008140	0x00000040	[  8] __ZN2pp8ResourceC1ERKS0_
0x00008180	0x00000040	[  8] __ZN2pp8ResourceC2ERKS0_
0x000081C0	0x00000050	[  8] __ZN2pp8ResourceD0Ev
0x00008210	0x00000040	[  8] __ZN2pp8ResourceD1Ev
0x00008250	0x00000040	[  8] __ZN2pp8ResourceD2Ev
0x00008290	0x00000050	[  8] __ZN2pp8ResourceaSERKS0_
0x000082E0	0x00000010	[  8] __ZN2pp8Resource6detachEv
0x000082F0	0x00000040	[  8] __ZN2pp8ResourceC1Ei
0x00008330	0x00000040	[  8] __ZN2pp8ResourceC2Ei
0x00008370	0x00000020	[  8] __ZN2pp8ResourceC1ENS_7PassRefEi
0x00008390	0x00000020	[  8] __ZN2pp8ResourceC2ENS_7PassRefEi
0x000083B0	0x00000010	[  8] __ZN2pp8Resource22PassRefFromConstructorEi
0x000083C0	0x0000002F	[  8] __ZN2pp8Resource5ClearEv
0x000083F0	0x00000030	[  9] __ZN2pp9URLLoaderC1Ei
0x00008420	0x00000030	[  9] __ZN2pp9URLLoaderC2Ei
0x00008450	0x00000010	[  9] __ZN2pp9URLLoaderC1ERKNS_14InstanceHandleE
0x00008460	0x00000100	[  9] __ZN2pp9URLLoaderC2ERKNS_14InstanceHandleE
0x00008560	0x00000030	[  9] __ZN2pp9URLLoaderC1ERKS0_
0x00008590	0x00000030	[  9] __ZN2pp9URLLoaderC2ERKS0_
0x000085C0	0x00000130	[  9] __ZN2pp9URLLoader4OpenERKNS_14URLRequestInfoERKNS_18CompletionCallbackE
0x000086F0	0x00000120	[  9] __ZN2pp9URLLoader14FollowRedirectERKNS_18CompletionCallbackE
0x00008810	0x000000F0	[  9] __ZNK2pp9URLLoader17GetUploadProgressEPxS1_
0x00008900	0x000000F0	[  9] __ZNK2pp9URLLoader19GetDownloadProgressEPxS1_
0x000089F0	0x000000F0	[  9] __ZNK2pp9URLLoader15GetResponseInfoEv
0x00008AE0	0x00000130	[  9] __ZN2pp9URLLoader16ReadResponseBodyEPviRKNS_18CompletionCallbackE
0x00008C10	0x00000120	[  9] __ZN2pp9URLLoader21FinishStreamingToFileERKNS_18CompletionCallbackE
0x00008D30	0x000000CB	[  9] __ZN2pp9URLLoader5CloseEv
0x00008E00	0x00000030	[  9] __ZN2pp9URLLoaderD0Ev
0x00008E30	0x0000002E	[  9] __ZN2pp15URLResponseInfoD0Ev
0x00008E60	0x00000030	[ 10] __ZN2pp15URLResponseInfoC1ERKS0_
0x00008E90	0x00000030	[ 10] __ZN2pp15URLResponseInfoC2ERKS0_
0x00008EC0	0x00000030	[ 10] __ZN2pp15URLResponseInfoC1ENS_7PassRefEi
0x00008EF0	0x00000030	[ 10] __ZN2pp15URLResponseInfoC2ENS_7PassRefEi
0x00008F20	0x00000100	[ 10] __ZNK2pp15URLResponseInfo11GetPropertyE22PP_URLResponseProperty
0x00009020	0x000000EF	[ 10] __ZNK2pp15URLResponseInfo16GetBodyAsFileRefEv
0x00009110	0x0000002E	[ 10] __ZN2pp7FileRefD0Ev
0x00009140	0x00000030	[ 11] __ZN2pp3VarC1Ev
0x00009170	0x00000030	[ 11] __ZN2pp3VarC2Ev
0x000091A0	0x00000030	[ 11] __ZN2pp3VarC1ENS0_4NullE
0x000091D0	0x00000030	[ 11] __ZN2pp3VarC2ENS0_4NullE
0x00009200	0x00000030	[ 11] __ZN2pp3VarC1Eb
0x00009230	0x00000030	[ 11] __ZN2pp3VarC2Eb
0x00009260	0x00000030	[ 11] __ZN2pp3VarC1Ei
0x00009290	0x00000030	[ 11] __ZN2pp3VarC2Ei
0x000092C0	0x00000030	[ 11] __ZN2pp3VarC1Ed
0x000092F0	0x00000030	[ 11] __ZN2pp3VarC2Ed
0x00009320	0x00000050	[ 11] __ZN2pp3VarC1EPKc
0x00009370	0x00000050	[ 11] __ZN2pp3VarC2EPKc
0x000093C0	0x00000240	[ 11] __ZN2pp12_GLOBAL__N_117VarFromUtf8HelperEPKcj
0x00009600	0x00000050	[ 11] __ZN2pp3VarC1ERKNSt3__112basic_stringIcNS1_11char_traitsIcEENS1_9allocatorIcEEEE
0x00009650	0x00000050	[ 11] __ZN2pp3VarC2ERKNSt3__112basic_stringIcNS1_11char_traitsIcEENS1_9allocatorIcEEEE
0x000096A0	0x00000010	[ 11] __ZN2pp3VarC1ERKNS_8ResourceE
0x000096B0	0x000000E0	[ 11] __ZN2pp3VarC2ERKNS_8ResourceE
0x00009790	0x00000050	[ 11] __ZN2pp3VarC1ERK6PP_Var
0x000097E0	0x00000050	[ 11] __ZN2pp3VarC2ERK6PP_Var
0x00009830	0x00000220	[ 11] __ZN2pp12_GLOBAL__N_112AddRefHelperERK6PP_Var
0x00009A50	0x00000050	[ 11] __ZN2pp3VarC1ERKS0_
0x00009AA0	0x00000050	[ 11] __ZN2pp3VarC2ERKS0_
0x00009AF0	0x00000050	[ 11] __ZN2pp3VarD0Ev
0x00009B40	0x00000030	[ 11] __ZN2pp3VarD1Ev
0x00009B70	0x00000030	[ 11] __ZN2pp3VarD2Ev
0x00009BA0	0x00000220	[ 11] __ZN2pp12_GLOBAL__N_113ReleaseHelperERK6PP_Var
0x00009DC0	0x00000060	[ 11] __ZN2pp3VaraSERKS0_
0x00009E20	0x00000180	[ 11] __ZNK2pp3VareqERKS0_
0x00009FA0	0x00000020	[ 11] __ZNK2pp3Var6AsBoolEv
0x00009FC0	0x00000030	[ 11] __ZNK2pp3Var5AsIntEv
0x00009FF0	0x00000030	[ 11] __ZNK2pp3Var8AsDoubleEv
0x0000A020	0x00000260	[ 11] __ZNK2pp3Var8AsStringEv
0x0000A280	0x000000F0	[ 11] __ZNK2pp3Var10AsResourceEv
0x0000A370	0x00000248	[ 11] __ZNK2pp3Var11DebugStringEv
0x0000A5C0	0x00000030	[ 12] __ZN2pp4ViewC1Ev
0x0000A5F0	0x00000030	[ 12] __ZN2pp4ViewC2Ev
0x0000A620	0x00000030	[ 12] __ZN2pp4ViewC1Ei
0x0000A650	0x00000030	[ 12] __ZN2pp4ViewC2Ei
0x0000A680	0x00000260	[ 12] __ZNK2pp4View7GetRectEv
0x0000A8E0	0x00000220	[ 12] __ZNK2pp4View12IsFullscreenEv
0x0000AB00	0x00000220	[ 12] __ZNK2pp4View9IsVisibleEv
0x0000AD20	0x00000220	[ 12] __ZNK2pp4View13IsPageVisibleEv
0x0000AF40	0x00000260	[ 12] __ZNK2pp4View11GetClipRectEv
0x0000B1A0	0x00000180	[ 12] __ZNK2pp4View14GetDeviceScaleEv
0x0000B320	0x00000180	[ 12] __ZNK2pp4View11GetCSSScaleEv
0x0000B4A0	0x000000EF	[ 12] __ZNK2pp4View15GetScrollOffsetEv
0x0000B590	0x0000002E	[ 12] __ZN2pp4ViewD0Ev
0x0000B5BE	0x00000006	[ 14] __Unwind_Resume
0x0000B5C4	0x00000006	[ 13] __ZNKSt3__112basic_stringIcNS_11char_traitsIcEENS_9allocatorIcEEE7compareEPKc
0x0000B5CA	0x00000006	[ 13] __ZNSt3__112basic_stringIcNS_11char_traitsIcEENS_9allocatorIcEEE6__initEPKcm
0x0000B5D0	0x00000006	[ 13] __ZNSt3__112basic_stringIcNS_11char_traitsIcEENS_9allocatorIcEEE6appendEPKc
0x0000B5D6	0x00000006	[ 13] __ZNSt3__112basic_stringIcNS_11char_traitsIcEENS_9allocatorIcEEE6resizeEmc
0x0000B5DC	0x00000006	[ 13] __ZNSt3__112basic_stringIcNS_11char_traitsIcEENS_9allocatorIcEEEC1ERKS5_
0x0000B5E2	0x00000006	[ 13] __ZNSt3__112basic_stringIcNS_11char_traitsIcEENS_9allocatorIcEEED1Ev
0x0000B5E8	0x00000006	[ 13] __ZSt9terminatev
0x0000B5EE	0x00000006	[ 13] __ZdlPv
0x0000B5F4	0x00000006	[ 13] __Znwm
0x0000B5FA	0x00000006	[ 13] ___cxa_begin_catch
0x0000B600	0x00000006	[ 13] ___cxa_call_unexpected
0x0000B606	0x00000006	[ 13] ___cxa_guard_abort
0x0000B60C	0x00000006	[ 13] ___cxa_guard_acquire
0x0000B612	0x00000006	[ 13] ___cxa_guard_release
0x0000B618	0x00000006	[ 14] ___stack_chk_fail
0x0000B61E	0x00000006	[ 14] _memcmp
0x0000B624	0x00000006	[ 14] _snprintf
0x0000B62A	0x00000006	[ 14] _strcmp
0x0000B630	0x00000006	[ 14] _strlen
0x0000B638	0x00000010	[  0] helper helper
0x0000B648	0x0000000A	[ 13] __ZNKSt3__112basic_stringIcNS_11char_traitsIcEENS_9allocatorIcEEE7compareEPKc
0x0000B652	0x0000000A	[ 13] __ZNSt3__112basic_stringIcNS_11char_traitsIcEENS_9allocatorIcEEE6__initEPKcm
0x0000B65C	0x0000000A	[ 13] __ZNSt3__112basic_stringIcNS_11char_traitsIcEENS_9allocatorIcEEE6appendEPKc
0x0000B666	0x0000000A	[ 13] __ZNSt3__112basic_stringIcNS_11char_traitsIcEENS_9allocatorIcEEE6resizeEmc
0x0000B670	0x0000000A	[ 13] __ZNSt3__112basic_stringIcNS_11char_traitsIcEENS_9allocatorIcEEEC1ERKS5_
0x0000B67A	0x0000000A	[ 13] __ZNSt3__112basic_stringIcNS_11char_traitsIcEENS_9allocatorIcEEED1Ev
0x0000B684	0x0000000A	[ 13] __ZSt9terminatev
0x0000B68E	0x0000000A	[ 13] ___cxa_begin_catch
0x0000B698	0x0000000A	[ 13] ___cxa_call_unexpected
0x0000B6A2	0x0000000A	[ 13] ___cxa_guard_abort
0x0000B6AC	0x0000000A	[ 13] ___cxa_guard_acquire
0x0000B6B6	0x0000000A	[ 13] ___cxa_guard_release
0x0000B6C0	0x0000000A	[ 14] __Unwind_Resume
0x0000B6CA	0x0000000A	[ 14] ___stack_chk_fail
0x0000B6D4	0x0000000A	[ 14] _memcmp
0x0000B6DE	0x0000000A	[ 14] _snprintf
0x0000B6E8	0x0000000A	[ 14] _strcmp
0x0000B6F2	0x0000000A	[ 14] _strlen
0x0000B6FC	0x0000002C	[  1] GCC_except_table0
0x0000B728	0x00000020	[  1] GCC_except_table2
0x0000B748	0x0000002C	[  1] GCC_except_table3
0x0000B774	0x00000020	[  1] GCC_except_table5
0x0000B794	0x00000068	[  1] GCC_except_table6
0x0000B7FC	0x000000AC	[  3] GCC_except_table5
0x0000B8A8	0x00000060	[  3] GCC_except_table9
0x0000B908	0x00000060	[  3] GCC_except_table10
0x0000B968	0x00000060	[  3] GCC_except_table11
0x0000B9C8	0x00000060	[  3] GCC_except_table12
0x0000BA28	0x00000070	[  3] GCC_except_table13
0x0000BA98	0x00000060	[  3] GCC_except_table14
0x0000BAF8	0x00000060	[  3] GCC_except_table15
0x0000BB58	0x00000060	[  3] GCC_except_table16
0x0000BBB8	0x00000048	[  3] GCC_except_table17
0x0000BC00	0x00000048	[  3] GCC_except_table18
0x0000BC48	0x0000005C	[  4] GCC_except_table3
0x0000BCA4	0x00000020	[  4] GCC_except_table5
0x0000BCC4	0x0000002C	[  4] GCC_except_table8
0x0000BCF0	0x0000002C	[  4] GCC_except_table9
0x0000BD1C	0x0000002C	[  4] GCC_except_table10
0x0000BD48	0x0000005C	[  4] GCC_except_table14
0x0000BDA4	0x0000005C	[  4] GCC_except_table16
0x0000BE00	0x0000002C	[  4] GCC_except_table17
0x0000BE2C	0x0000002C	[  4] GCC_except_table18
0x0000BE58	0x0000002C	[  4] GCC_except_table19
0x0000BE84	0x0000002C	[  4] GCC_except_table20
0x0000BEB0	0x0000005C	[  4] GCC_except_table24
0x0000BF0C	0x0000005C	[  4] GCC_except_table26
0x0000BF68	0x0000002C	[  4] GCC_except_table27
0x0000BF94	0x0000002C	[  4] GCC_except_table28
0x0000BFC0	0x0000002C	[  4] GCC_except_table29
0x0000BFEC	0x00000080	[  4] GCC_except_table33
0x0000C06C	0x0000009C	[  4] GCC_except_table35
0x0000C108	0x00000080	[  4] GCC_except_table37
0x0000C188	0x00000048	[  4] GCC_except_table38
0x0000C1D0	0x00000048	[  4] GCC_except_table39
0x0000C218	0x0000002C	[  4] GCC_except_table40
0x0000C244	0x0000005C	[  4] GCC_except_table44
0x0000C2A0	0x0000005C	[  4] GCC_except_table46
0x0000C2FC	0x0000002C	[  4] GCC_except_table47
0x0000C328	0x0000002C	[  4] GCC_except_table48
0x0000C354	0x0000002C	[  4] GCC_except_table49
0x0000C380	0x0000002C	[  4] GCC_except_table50
0x0000C3AC	0x0000005C	[  4] GCC_except_table54
0x0000C408	0x0000005C	[  4] GCC_except_table56
0x0000C464	0x0000002C	[  4] GCC_except_table57
0x0000C490	0x0000002C	[  4] GCC_except_table58
0x0000C4BC	0x0000002C	[  4] GCC_except_table59
0x0000C4E8	0x0000002C	[  4] GCC_except_table60
0x0000C514	0x0000002C	[  4] GCC_except_table61
0x0000C540	0x00000020	[  4] GCC_except_table63
0x0000C560	0x00000020	[  4] GCC_except_table65
0x0000C580	0x00000020	[  4] GCC_except_table67
0x0000C5A0	0x00000020	[  4] GCC_except_table69
0x0000C5C0	0x00000020	[  4] GCC_except_table71
0x0000C5E0	0x0000003C	[  5] GCC_except_table6
0x0000C61C	0x0000002C	[  5] GCC_except_table13
0x0000C648	0x0000002C	[  5] GCC_except_table14
0x0000C674	0x0000002C	[  5] GCC_except_table15
0x0000C6A0	0x0000002C	[  5] GCC_except_table16
0x0000C6CC	0x0000002C	[  5] GCC_except_table17
0x0000C6F8	0x0000002C	[  5] GCC_except_table18
0x0000C724	0x0000002C	[  5] GCC_except_table19
0x0000C750	0x00000048	[  5] GCC_except_table20
0x0000C798	0x0000002C	[  5] GCC_except_table21
0x0000C7C4	0x0000002C	[  5] GCC_except_table22
0x0000C7F0	0x0000002C	[  5] GCC_except_table23
0x0000C81C	0x0000002C	[  5] GCC_except_table24
0x0000C848	0x0000002C	[  5] GCC_except_table26
0x0000C874	0x0000004C	[  5] GCC_except_table34
0x0000C8C0	0x0000004C	[  5] GCC_except_table35
0x0000C90C	0x00000028	[  5] GCC_except_table37
0x0000C934	0x0000004C	[  6] GCC_except_table0
0x0000C980	0x0000004C	[  6] GCC_except_table6
0x0000C9CC	0x0000004C	[  6] GCC_except_table8
0x0000CA18	0x0000004C	[  6] GCC_except_table9
0x0000CA64	0x0000002C	[  6] GCC_except_table18
0x0000CA90	0x00000028	[  6] GCC_except_table24
0x0000CAB8	0x00000020	[  8] GCC_except_table4
0x0000CAD8	0x0000005C	[  9] GCC_except_table3
0x0000CB34	0x0000002C	[  9] GCC_except_table7
0x0000CB60	0x0000002C	[  9] GCC_except_table8
0x0000CB8C	0x0000002C	[  9] GCC_except_table9
0x0000CBB8	0x0000002C	[  9] GCC_except_table10
0x0000CBE4	0x0000002C	[  9] GCC_except_table11
0x0000CC10	0x0000002C	[  9] GCC_except_table12
0x0000CC3C	0x0000002C	[  9] GCC_except_table13
0x0000CC68	0x0000002C	[  9] GCC_except_table14
0x0000CC94	0x00000020	[  9] GCC_except_table16
0x0000CCB4	0x00000020	[  9] GCC_except_table18
0x0000CCD4	0x0000002C	[ 10] GCC_except_table4
0x0000CD00	0x0000002C	[ 10] GCC_except_table5
0x0000CD2C	0x00000020	[ 10] GCC_except_table9
0x0000CD4C	0x00000070	[ 11] GCC_except_table12
0x0000CDBC	0x0000002C	[ 11] GCC_except_table16
0x0000CDE8	0x00000060	[ 11] GCC_except_table19
0x0000CE48	0x00000020	[ 11] GCC_except_table22
0x0000CE68	0x00000060	[ 11] GCC_except_table25
0x0000CEC8	0x0000004C	[ 11] GCC_except_table27
0x0000CF14	0x00000060	[ 11] GCC_except_table31
0x0000CF74	0x0000002C	[ 11] GCC_except_table33
0x0000CFA0	0x0000004C	[ 11] GCC_except_table34
0x0000CFEC	0x00000060	[ 12] GCC_except_table4
0x0000D04C	0x00000060	[ 12] GCC_except_table5
0x0000D0AC	0x00000060	[ 12] GCC_except_table6
0x0000D10C	0x00000060	[ 12] GCC_except_table7
0x0000D16C	0x00000060	[ 12] GCC_except_table8
0x0000D1CC	0x00000048	[ 12] GCC_except_table9
0x0000D214	0x00000048	[ 12] GCC_except_table10
0x0000D25C	0x0000002C	[ 12] GCC_except_table11
0x0000D288	0x00000020	[ 12] GCC_except_table13
0x0000D2B0	0x00000020	[  1] __ZTS19HelloTutorialModule
0x0000D2D0	0x00000018	[  1] __ZTS21HelloTutorialInstance
0x0000D2F0	0x00000012	[  4] __ZTSN2pp10InputEventE
0x0000D310	0x00000020	[  4] __ZTSN2pp15MouseInputEventE
0x0000D330	0x00000020	[  4] __ZTSN2pp15WheelInputEventE
0x0000D350	0x00000020	[  4] __ZTSN2pp18KeyboardInputEventE
0x0000D370	0x00000020	[  4] __ZTSN2pp15TouchInputEventE
0x0000D390	0x00000015	[  4] __ZTSN2pp13IMEInputEventE
0x0000D3A5	0x0000000F	[  5] __ZTSN2pp8InstanceE
0x0000D3B4	0x0000000D	[  6] __ZTSN2pp6ModuleE
0x0000D3C1	0x0000000F	[  8] __ZTSN2pp8ResourceE
0x0000D3D0	0x00000010	[  9] __ZTSN2pp9URLLoaderE
0x0000D3E0	0x00000017	[  9] __ZTSN2pp15URLResponseInfoE
0x0000D3F7	0x0000000E	[ 10] __ZTSN2pp7FileRefE
0x0000D405	0x0000000A	[ 11] __ZTSN2pp3VarE
0x0000D410	0x00000004	[ 12] 4-byte-literal
0x0000D414	0x0000000B	[ 12] __ZTSN2pp4ViewE
0x0000D41F	0x00000006	[  1] literal string: hello
0x0000D425	0x00000010	[  1] literal string: hello from NaCl
0x0000D435	0x00000010	[  3] literal string: PPB_FileRef;1.0
0x0000D445	0x00000010	[  3] literal string: PPB_FileRef;1.1
0x0000D455	0x00000010	[  3] literal string: PPB_FileRef;1.2
0x0000D465	0x00000016	[  4] literal string: PPB_IMEInputEvent;1.0
0x0000D47B	0x00000018	[  4] literal string: PPB_TouchInputEvent;1.0
0x0000D493	0x0000001B	[  4] literal string: PPB_KeyboardInputEvent;1.0
0x0000D4AE	0x0000001B	[  4] literal string: PPB_KeyboardInputEvent;1.2
0x0000D4C9	0x00000018	[  4] literal string: PPB_WheelInputEvent;1.0
0x0000D4E1	0x00000018	[  4] literal string: PPB_MouseInputEvent;1.1
0x0000D4F9	0x00000010	[  5] literal string: PPB_Console;1.0
0x0000D509	0x00000012	[  5] literal string: PPB_Messaging;1.0
0x0000D51B	0x00000012	[  5] literal string: PPB_Messaging;1.2
0x0000D52D	0x00000013	[  5] literal string: PPB_InputEvent;1.0
0x0000D540	0x00000011	[  5] literal string: PPB_Instance;1.0
0x0000D551	0x00000013	[  6] literal string: PPP_InputEvent;0.1
0x0000D564	0x00000011	[  6] literal string: PPP_Instance;1.1
0x0000D575	0x00000012	[  6] literal string: PPP_Messaging;1.0
0x0000D587	0x0000000D	[  6] literal string: PPB_Core;1.0
0x0000D594	0x00000012	[  9] literal string: PPB_URLLoader;1.0
0x0000D5A6	0x00000018	[ 10] literal string: PPB_URLResponseInfo;1.0
0x0000D5BE	0x0000000F	[ 11] literal string: Var(UNDEFINED)
0x0000D5CD	0x0000000A	[ 11] literal string: Var(NULL)
0x0000D5D7	0x0000000A	[ 11] literal string: Var(true)
0x0000D5E1	0x0000000B	[ 11] literal string: Var(false)
0x0000D5EC	0x00000008	[ 11] literal string: Var(%d)
0x0000D5F4	0x00000008	[ 11] literal string: Var(%f)
0x0000D5FC	0x0000000A	[ 11] literal string: Var<'%s'>
0x0000D606	0x00000004	[ 11] literal string: ...
0x0000D60A	0x0000000C	[ 11] literal string: Var(OBJECT)
0x0000D616	0x0000000B	[ 11] literal string: Var(ARRAY)
0x0000D621	0x00000010	[ 11] literal string: Var(DICTIONARY)
0x0000D631	0x00000012	[ 11] literal string: Var(ARRAY_BUFFER)
0x0000D643	0x0000000E	[ 11] literal string: Var(RESOURCE)
0x0000D651	0x0000000C	[ 11] literal string: PPB_Var;1.0
0x0000D65D	0x0000000C	[ 11] literal string: PPB_Var;1.1
0x0000D669	0x0000000C	[ 11] literal string: PPB_Var;1.2
0x0000D675	0x0000000D	[ 12] literal string: PPB_View;1.0
0x0000D682	0x0000000D	[ 12] literal string: PPB_View;1.1
0x0000D68F	0x0000000D	[ 12] literal string: PPB_View;1.2
0x0000D69C	0x000006D8	[  0] compact unwind info
0x0000DD78	0x00000020	[  1] CIE
0x0000DD98	0x00000018	[  1] CIE
0x0000DDB0	0x00000020	[  1] FDE for: ___clang_call_terminate
0x0000DDD0	0x00000018	[  2] CIE
0x0000DDE8	0x00000018	[  3] CIE
0x0000DE00	0x00000020	[  3] CIE
0x0000DE20	0x00000018	[  4] CIE
0x0000DE38	0x00000020	[  4] CIE
0x0000DE58	0x00000018	[  5] CIE
0x0000DE70	0x00000020	[  5] CIE
0x0000DE90	0x00000020	[  6] CIE
0x0000DEB0	0x00000018	[  6] CIE
0x0000DEC8	0x00000018	[  7] CIE
0x0000DEE0	0x00000018	[  8] CIE
0x0000DEF8	0x00000020	[  8] CIE
0x0000DF18	0x00000018	[  9] CIE
0x0000DF30	0x00000020	[  9] CIE
0x0000DF50	0x00000018	[ 10] CIE
0x0000DF68	0x00000020	[ 10] CIE
0x0000DF88	0x00000018	[ 11] CIE
0x0000DFA0	0x00000020	[ 11] CIE
0x0000DFC0	0x00000018	[ 12] CIE
0x0000DFD8	0x00000020	[ 12] CIE
0x0000E000	0x00000008	[  0] non-lazy-pointer-to-local: __ZTV19HelloTutorialModule
0x0000E008	0x00000008	[  0] non-lazy-pointer-to-local: __ZTV21HelloTutorialInstance
0x0000E010	0x00000008	[  0] non-lazy-pointer-to-local: __ZTVN2pp13IMEInputEventE
0x0000E018	0x00000008	[  0] non-lazy-pointer-to-local: __ZTVN2pp15MouseInputEventE
0x0000E020	0x00000008	[  0] non-lazy-pointer-to-local: __ZTVN2pp15TouchInputEventE
0x0000E028	0x00000008	[  0] non-lazy-pointer-to-local: __ZTVN2pp15URLResponseInfoE
0x0000E030	0x00000008	[  0] non-lazy-pointer-to-local: __ZTVN2pp15WheelInputEventE
0x0000E038	0x00000008	[  0] non-lazy-pointer-to-local: __ZTVN2pp18KeyboardInputEventE
0x0000E040	0x00000008	[  0] non-lazy-pointer-to-local: __ZTVN2pp4ViewE
0x0000E048	0x00000008	[  0] non-lazy-pointer-to-local: __ZTVN2pp7FileRefE
0x0000E050	0x00000008	[  0] non-lazy-pointer-to-local: __ZTVN2pp9URLLoaderE
0x0000E058	0x00000008	[  0] non-lazy-pointer-to-local: ___gxx_personality_v0
0x0000E060	0x00000008	[  0] non-lazy-pointer-to-local: ___stack_chk_guard
0x0000E068	0x00000008	[  0] non-lazy-pointer-to-local: dyld_stub_binder
0x0000E070	0x00000008	[  0] non-lazy-pointer
0x0000E078	0x00000008	[ 14] __Unwind_Resume
0x0000E080	0x00000008	[ 13] __ZNKSt3__112basic_stringIcNS_11char_traitsIcEENS_9allocatorIcEEE7compareEPKc
0x0000E088	0x00000008	[ 13] __ZNSt3__112basic_stringIcNS_11char_traitsIcEENS_9allocatorIcEEE6__initEPKcm
0x0000E090	0x00000008	[ 13] __ZNSt3__112basic_stringIcNS_11char_traitsIcEENS_9allocatorIcEEE6appendEPKc
0x0000E098	0x00000008	[ 13] __ZNSt3__112basic_stringIcNS_11char_traitsIcEENS_9allocatorIcEEE6resizeEmc
0x0000E0A0	0x00000008	[ 13] __ZNSt3__112basic_stringIcNS_11char_traitsIcEENS_9allocatorIcEEEC1ERKS5_
0x0000E0A8	0x00000008	[ 13] __ZNSt3__112basic_stringIcNS_11char_traitsIcEENS_9allocatorIcEEED1Ev
0x0000E0B0	0x00000008	[ 13] __ZSt9terminatev
0x0000E0B8	0x00000008	[ 13] __ZdlPv
0x0000E0C0	0x00000008	[ 13] __Znwm
0x0000E0C8	0x00000008	[ 13] ___cxa_begin_catch
0x0000E0D0	0x00000008	[ 13] ___cxa_call_unexpected
0x0000E0D8	0x00000008	[ 13] ___cxa_guard_abort
0x0000E0E0	0x00000008	[ 13] ___cxa_guard_acquire
0x0000E0E8	0x00000008	[ 13] ___cxa_guard_release
0x0000E0F0	0x00000008	[ 14] ___stack_chk_fail
0x0000E0F8	0x00000008	[ 14] _memcmp
0x0000E100	0x00000008	[ 14] _snprintf
0x0000E108	0x00000008	[ 14] _strcmp
0x0000E110	0x00000008	[ 14] _strlen
0x0000E120	0x00000020	[  4] __ZTVN2pp10InputEventE
0x0000E140	0x00000018	[  4] __ZTIN2pp10InputEventE
0x0000E160	0x00000058	[  5] __ZTVN2pp8InstanceE
0x0000E1B8	0x00000010	[  5] __ZTIN2pp8InstanceE
0x0000E1D0	0x00000030	[  6] __ZTVN2pp6ModuleE
0x0000E200	0x00000008	[  6] __ZN2ppL21input_event_interfaceE
0x0000E208	0x00000010	[  6] __ZTIN2pp6ModuleE
0x0000E220	0x00000020	[  8] __ZTVN2pp8ResourceE
0x0000E240	0x00000010	[  8] __ZTIN2pp8ResourceE
0x0000E250	0x00000028	[ 11] __ZTVN2pp3VarE
0x0000E278	0x00000010	[ 11] __ZTIN2pp3VarE
0x0000E290	0x00000030	[  1] __ZTV19HelloTutorialModule
0x0000E2C0	0x00000018	[  1] __ZTI19HelloTutorialModule
0x0000E2D8	0x00000058	[  1] __ZTV21HelloTutorialInstance
0x0000E330	0x00000018	[  1] __ZTI21HelloTutorialInstance
0x0000E350	0x00000020	[  4] __ZTVN2pp15MouseInputEventE
0x0000E370	0x00000020	[  4] __ZTVN2pp15WheelInputEventE
0x0000E390	0x00000020	[  4] __ZTVN2pp18KeyboardInputEventE
0x0000E3B0	0x00000020	[  4] __ZTVN2pp15TouchInputEventE
0x0000E3D0	0x00000020	[  4] __ZTVN2pp13IMEInputEventE
0x0000E3F0	0x00000020	[  4] __ZTIN2pp15MouseInputEventE
0x0000E410	0x00000020	[  4] __ZTIN2pp15WheelInputEventE
0x0000E430	0x00000020	[  4] __ZTIN2pp18KeyboardInputEventE
0x0000E450	0x00000020	[  4] __ZTIN2pp15TouchInputEventE
0x0000E470	0x00000018	[  4] __ZTIN2pp13IMEInputEventE
0x0000E488	0x00000018	[  5] __ZN2pp12_GLOBAL__N_1L18message_handler_ifE
0x0000E4A0	0x00000028	[  6] __ZN2ppL18instance_interfaceE
0x0000E4C8	0x00000008	[  6] __ZN2ppL28instance_messaging_interfaceE
0x0000E4D0	0x00000020	[  9] __ZTVN2pp9URLLoaderE
0x0000E4F0	0x00000020	[  9] __ZTIN2pp9URLLoaderE
0x0000E510	0x00000020	[  9] __ZTVN2pp15URLResponseInfoE
0x0000E530	0x00000018	[  9] __ZTIN2pp15URLResponseInfoE
0x0000E550	0x00000020	[ 10] __ZTVN2pp7FileRefE
0x0000E570	0x00000018	[ 10] __ZTIN2pp7FileRefE
0x0000E590	0x00000020	[ 12] __ZTVN2pp4ViewE
0x0000E5B0	0x00000018	[ 12] __ZTIN2pp4ViewE
0x0000E5C8	0x00000008	[  3] __ZZN2pp12_GLOBAL__N_113get_interfaceI15PPB_FileRef_1_0EEPKT_vE5funcs
0x0000E5D0	0x00000008	[  3] __ZGVZN2pp12_GLOBAL__N_113get_interfaceI15PPB_FileRef_1_0EEPKT_vE5funcs
0x0000E5D8	0x00000008	[  3] __ZZN2pp12_GLOBAL__N_113get_interfaceI15PPB_FileRef_1_1EEPKT_vE5funcs
0x0000E5E0	0x00000008	[  3] __ZGVZN2pp12_GLOBAL__N_113get_interfaceI15PPB_FileRef_1_1EEPKT_vE5funcs
0x0000E5E8	0x00000008	[  3] __ZZN2pp12_GLOBAL__N_113get_interfaceI15PPB_FileRef_1_2EEPKT_vE5funcs
0x0000E5F0	0x00000008	[  3] __ZGVZN2pp12_GLOBAL__N_113get_interfaceI15PPB_FileRef_1_2EEPKT_vE5funcs
0x0000E5F8	0x00000008	[  4] __ZZN2pp12_GLOBAL__N_113get_interfaceI21PPB_IMEInputEvent_1_0EEPKT_vE5funcs
0x0000E600	0x00000008	[  4] __ZGVZN2pp12_GLOBAL__N_113get_interfaceI21PPB_IMEInputEvent_1_0EEPKT_vE5funcs
0x0000E608	0x00000008	[  4] __ZZN2pp12_GLOBAL__N_113get_interfaceI23PPB_TouchInputEvent_1_0EEPKT_vE5funcs
0x0000E610	0x00000008	[  4] __ZGVZN2pp12_GLOBAL__N_113get_interfaceI23PPB_TouchInputEvent_1_0EEPKT_vE5funcs
0x0000E618	0x00000008	[  4] __ZZN2pp12_GLOBAL__N_113get_interfaceI26PPB_KeyboardInputEvent_1_0EEPKT_vE5funcs
0x0000E620	0x00000008	[  4] __ZGVZN2pp12_GLOBAL__N_113get_interfaceI26PPB_KeyboardInputEvent_1_0EEPKT_vE5funcs
0x0000E628	0x00000008	[  4] __ZZN2pp12_GLOBAL__N_113get_interfaceI26PPB_KeyboardInputEvent_1_2EEPKT_vE5funcs
0x0000E630	0x00000008	[  4] __ZGVZN2pp12_GLOBAL__N_113get_interfaceI26PPB_KeyboardInputEvent_1_2EEPKT_vE5funcs
0x0000E638	0x00000008	[  4] __ZZN2pp12_GLOBAL__N_113get_interfaceI23PPB_WheelInputEvent_1_0EEPKT_vE5funcs
0x0000E640	0x00000008	[  4] __ZGVZN2pp12_GLOBAL__N_113get_interfaceI23PPB_WheelInputEvent_1_0EEPKT_vE5funcs
0x0000E648	0x00000008	[  4] __ZZN2pp12_GLOBAL__N_113get_interfaceI23PPB_MouseInputEvent_1_1EEPKT_vE5funcs
0x0000E650	0x00000008	[  4] __ZGVZN2pp12_GLOBAL__N_113get_interfaceI23PPB_MouseInputEvent_1_1EEPKT_vE5funcs
0x0000E658	0x00000008	[  4] __ZZN2pp12_GLOBAL__N_113get_interfaceI18PPB_InputEvent_1_0EEPKT_vE5funcs
0x0000E660	0x00000008	[  4] __ZGVZN2pp12_GLOBAL__N_113get_interfaceI18PPB_InputEvent_1_0EEPKT_vE5funcs
0x0000E668	0x00000008	[  5] __ZZN2pp12_GLOBAL__N_113get_interfaceI15PPB_Console_1_0EEPKT_vE5funcs
0x0000E670	0x00000008	[  5] __ZGVZN2pp12_GLOBAL__N_113get_interfaceI15PPB_Console_1_0EEPKT_vE5funcs
0x0000E678	0x00000008	[  5] __ZZN2pp12_GLOBAL__N_113get_interfaceI17PPB_Messaging_1_0EEPKT_vE5funcs
0x0000E680	0x00000008	[  5] __ZGVZN2pp12_GLOBAL__N_113get_interfaceI17PPB_Messaging_1_0EEPKT_vE5funcs
0x0000E688	0x00000008	[  5] __ZZN2pp12_GLOBAL__N_113get_interfaceI17PPB_Messaging_1_2EEPKT_vE5funcs
0x0000E690	0x00000008	[  5] __ZGVZN2pp12_GLOBAL__N_113get_interfaceI17PPB_Messaging_1_2EEPKT_vE5funcs
0x0000E698	0x00000008	[  5] __ZZN2pp12_GLOBAL__N_113get_interfaceI18PPB_InputEvent_1_0EEPKT_vE5funcs
0x0000E6A0	0x00000008	[  5] __ZGVZN2pp12_GLOBAL__N_113get_interfaceI18PPB_InputEvent_1_0EEPKT_vE5funcs
0x0000E6A8	0x00000008	[  5] __ZZN2pp12_GLOBAL__N_113get_interfaceI16PPB_Instance_1_0EEPKT_vE5funcs
0x0000E6B0	0x00000008	[  5] __ZGVZN2pp12_GLOBAL__N_113get_interfaceI16PPB_Instance_1_0EEPKT_vE5funcs
0x0000E6B8	0x00000008	[  7] __ZL18g_module_singleton
0x0000E6C0	0x00000008	[  7] __ZL22g_broker_get_interface
0x0000E6C8	0x00000008	[  9] __ZZN2pp12_GLOBAL__N_113get_interfaceI17PPB_URLLoader_1_0EEPKT_vE5funcs
0x0000E6D0	0x00000008	[  9] __ZGVZN2pp12_GLOBAL__N_113get_interfaceI17PPB_URLLoader_1_0EEPKT_vE5funcs
0x0000E6D8	0x00000008	[ 10] __ZZN2pp12_GLOBAL__N_113get_interfaceI23PPB_URLResponseInfo_1_0EEPKT_vE5funcs
0x0000E6E0	0x00000008	[ 10] __ZGVZN2pp12_GLOBAL__N_113get_interfaceI23PPB_URLResponseInfo_1_0EEPKT_vE5funcs
0x0000E6E8	0x00000008	[ 11] __ZZN2pp12_GLOBAL__N_113get_interfaceI11PPB_Var_1_0EEPKT_vE5funcs
0x0000E6F0	0x00000008	[ 11] __ZGVZN2pp12_GLOBAL__N_113get_interfaceI11PPB_Var_1_0EEPKT_vE5funcs
0x0000E6F8	0x00000008	[ 11] __ZZN2pp12_GLOBAL__N_113get_interfaceI11PPB_Var_1_1EEPKT_vE5funcs
0x0000E700	0x00000008	[ 11] __ZGVZN2pp12_GLOBAL__N_113get_interfaceI11PPB_Var_1_1EEPKT_vE5funcs
0x0000E708	0x00000008	[ 11] __ZZN2pp12_GLOBAL__N_113get_interfaceI11PPB_Var_1_2EEPKT_vE5funcs
0x0000E710	0x00000008	[ 11] __ZGVZN2pp12_GLOBAL__N_113get_interfaceI11PPB_Var_1_2EEPKT_vE5funcs
0x0000E718	0x00000008	[ 12] __ZZN2pp12_GLOBAL__N_113get_interfaceI12PPB_View_1_0EEPKT_vE5funcs
0x0000E720	0x00000008	[ 12] __ZGVZN2pp12_GLOBAL__N_113get_interfaceI12PPB_View_1_0EEPKT_vE5funcs
0x0000E728	0x00000008	[ 12] __ZZN2pp12_GLOBAL__N_113get_interfaceI12PPB_View_1_1EEPKT_vE5funcs
0x0000E730	0x00000008	[ 12] __ZGVZN2pp12_GLOBAL__N_113get_interfaceI12PPB_View_1_1EEPKT_vE5funcs
0x0000E738	0x00000008	[ 12] __ZZN2pp12_GLOBAL__N_113get_interfaceI12PPB_View_1_2EEPKT_vE5funcs
0x0000E740	0x00000008	[ 12] __ZGVZN2pp12_GLOBAL__N_113get_interfaceI12PPB_View_1_2EEPKT_vE5funcs
